; Function Attrs: nounwind uwtable
define noalias nonnull ptr @l_Lake_Module_facet(ptr noundef %0, ptr noundef %1) local_unnamed_addr #0 {
  %3 = load ptr, ptr @l_Lake_Module_keyword, align 8, !tbaa !4
  %4 = tail call ptr @l_Lean_Name_append(ptr noundef %3, ptr noundef %0) #3
  %5 = getelementptr inbounds nuw i8, ptr %1, i64 24
  %6 = load ptr, ptr %5, align 8, !tbaa !4
  %7 = ptrtoint ptr %6 to i64
  %8 = and i64 %7, 1
  %.not = icmp eq i64 %8, 0
  br i1 %.not, label %9, label %lean_inc.exit

9:                                                ; preds = %2
  %.val.i = load i32, ptr %6, align 4, !tbaa !8
  %10 = icmp sgt i32 %.val.i, 0
  br i1 %10, label %11, label %13, !prof !11

11:                                               ; preds = %9
  %12 = add nuw i32 %.val.i, 1
  store i32 %12, ptr %6, align 4, !tbaa !8
  br label %lean_inc.exit

13:                                               ; preds = %9
  %.not.i = icmp eq i32 %.val.i, 0
  br i1 %.not.i, label %lean_inc.exit, label %14

14:                                               ; preds = %13
  tail call void @lean_inc_ref_cold(ptr noundef nonnull %6) #3
  br label %lean_inc.exit

lean_inc.exit:                                    ; preds = %14, %13, %11, %2
  tail call void @lean_inc_heartbeat() #3
  %15 = tail call noalias ptr @mi_malloc_small(i64 noundef 16) #3
  %16 = icmp eq ptr %15, null
  br i1 %16, label %17, label %lean_alloc_ctor.exit

17:                                               ; preds = %lean_inc.exit
  tail call void @lean_internal_panic_out_of_memory() #4
  unreachable

lean_alloc_ctor.exit:                             ; preds = %lean_inc.exit
  %18 = getelementptr inbounds nuw i8, ptr %15, i64 4
  store i32 1, ptr %15, align 4, !tbaa !8
  store i32 65552, ptr %18, align 4
  %19 = getelementptr inbounds nuw i8, ptr %15, i64 8
  store ptr %6, ptr %19, align 8, !tbaa !4
  tail call void @lean_inc_heartbeat() #3
  %20 = tail call noalias ptr @mi_malloc_small(i64 noundef 40) #3
  %21 = icmp eq ptr %20, null
  br i1 %21, label %22, label %lean_alloc_ctor.exit15

22:                                               ; preds = %lean_alloc_ctor.exit
  tail call void @lean_internal_panic_out_of_memory() #4
  unreachable

lean_alloc_ctor.exit15:                           ; preds = %lean_alloc_ctor.exit
  %23 = getelementptr inbounds nuw i8, ptr %20, i64 4
  store i32 1, ptr %20, align 4, !tbaa !8
  store i32 17039400, ptr %23, align 4
  %24 = getelementptr inbounds nuw i8, ptr %20, i64 8
  store ptr %15, ptr %24, align 8, !tbaa !4
  %25 = getelementptr inbounds nuw i8, ptr %20, i64 16
  store ptr %3, ptr %25, align 8, !tbaa !4
  %26 = getelementptr inbounds nuw i8, ptr %20, i64 24
  store ptr %1, ptr %26, align 8, !tbaa !4
  %27 = getelementptr inbounds nuw i8, ptr %20, i64 32
  store ptr %4, ptr %27, align 8, !tbaa !4
  ret ptr %20
}